target datalayout = "e-m:e-p270:32:32-p271:32:32-p272:64:64-i64:64-i128:128-f80:128-n8:16:32:64-S128"
target triple = "x86_64-pc-linux-gnu"

%class.KlassCleaningTask = type { i32, %class.ClassLoaderDataGraphKlassIteratorAtomic }
%class.ClassLoaderDataGraphKlassIteratorAtomic = type { ptr }
%class.Klass = type <{ %class.Metadata, i32, i32, i32, i32, ptr, ptr, ptr, [8 x ptr], %class.OopHandle, ptr, ptr, ptr, ptr, ptr, i32, %class.AccessFlags, i64, i64, i8, i8, i16, i16, [2 x i8], i32, [4 x i8] }>
%class.Metadata = type { ptr }
%class.OopHandle = type { ptr }
%class.AccessFlags = type { i32 }

; Function Attrs: mustprogress nounwind uwtable
define linkonce_odr hidden noundef zeroext i1 @_ZNK5Klass17is_instance_klassEv(ptr noundef nonnull align 8 dereferenceable(196) %0) #1 comdat align 2 {
  %2 = alloca ptr, align 8
  store ptr %0, ptr %2, align 8
  %3 = load ptr, ptr %2, align 8
  %4 = getelementptr inbounds %class.Klass, ptr %3, i32 0, i32 2
  %5 = load i32, ptr %4, align 4
  %6 = icmp sle i32 %5, 4
  ret i1 %6
}

; Function Attrs: mustprogress nounwind uwtable
define hidden noundef ptr @_ZN17KlassCleaningTask16claim_next_klassEv(ptr noundef nonnull align 8 dereferenceable(16) %0) #1 align 2 {
  %2 = alloca ptr, align 8
  %3 = alloca ptr, align 8
  store ptr %0, ptr %2, align 8
  %4 = load ptr, ptr %2, align 8
  br label %5

5:                                                ; preds = %15, %1
  %6 = getelementptr inbounds %class.KlassCleaningTask, ptr %4, i32 0, i32 1
  %7 = call noundef ptr @_ZN39ClassLoaderDataGraphKlassIteratorAtomic10next_klassEv(ptr noundef nonnull align 8 dereferenceable(8) %6)
  store ptr %7, ptr %3, align 8
  br label %8

8:                                                ; preds = %5
  %9 = load ptr, ptr %3, align 8
  %10 = icmp ne ptr %9, null
  br i1 %10, label %11, label %15

11:                                               ; preds = %8
  %12 = load ptr, ptr %3, align 8
  %13 = call noundef zeroext i1 @_ZNK5Klass17is_instance_klassEv(ptr noundef nonnull align 8 dereferenceable(196) %12)
  %14 = xor i1 %13, true
  br label %15

15:                                               ; preds = %11, %8
  %16 = phi i1 [ false, %8 ], [ %14, %11 ]
  br i1 %16, label %5, label %17, !llvm.loop !12

17:                                               ; preds = %15
  %18 = load ptr, ptr %3, align 8
  ret ptr %18
}