; Function Attrs: mustprogress nounwind uwtable
define hidden noundef ptr @_ZN17KlassCleaningTask16claim_next_klassEv(ptr noundef nonnull align 8 dereferenceable(16) %0) local_unnamed_addr #0 align 2 {
  %2 = getelementptr inbounds i8, ptr %0, i64 8
  br label %3

3:                                                ; preds = %5, %1
  %4 = tail call noundef ptr @_ZN39ClassLoaderDataGraphKlassIteratorAtomic10next_klassEv(ptr noundef nonnull align 8 dereferenceable(8) %2) #3
  %.not = icmp eq ptr %4, null
  br i1 %.not, label %.critedge, label %5

5:                                                ; preds = %3
  %6 = getelementptr inbounds i8, ptr %4, i64 12
  %7 = load i32, ptr %6, align 4
  %8 = icmp slt i32 %7, 5
  br i1 %8, label %.critedge, label %3, !llvm.loop !16

.critedge:                                        ; preds = %3, %5
  ret ptr %4
}